; Function Attrs: nofree norecurse nosync nounwind memory(read, argmem: readwrite, inaccessiblemem: none) uwtable
define i32 @ff_rv34_get_start_offset(ptr noundef captures(none) %0, i32 noundef %1) local_unnamed_addr #0 {
  %3 = add nsw i32 %1, -1
  br label %4

4:                                                ; preds = %2, %8
  %indvars.iv = phi i64 [ 0, %2 ], [ %indvars.iv.next, %8 ]
  %5 = getelementptr inbounds nuw [6 x i16], ptr @rv34_mb_max_sizes, i64 0, i64 %indvars.iv
  %6 = load i16, ptr %5, align 2, !tbaa !4
  %7 = zext i16 %6 to i32
  %.not = icmp sgt i32 %3, %7
  br i1 %.not, label %8, label %9

8:                                                ; preds = %4
  %indvars.iv.next = add nuw nsw i64 %indvars.iv, 1
  %exitcond.not = icmp eq i64 %indvars.iv.next, 5
  br i1 %exitcond.not, label %9, label %4, !llvm.loop !8

9:                                                ; preds = %4, %8
  %.0.lcssa = phi i64 [ %indvars.iv, %4 ], [ 5, %8 ]
  %10 = and i64 %.0.lcssa, 4294967295
  %11 = getelementptr inbounds nuw [6 x i8], ptr @rv34_mb_bits_sizes, i64 0, i64 %10
  %12 = load i8, ptr %11, align 1, !tbaa !10
  %13 = zext i8 %12 to i32
  %14 = getelementptr inbounds nuw i8, ptr %0, i64 16
  %15 = load i32, ptr %14, align 8, !tbaa !11
  %16 = getelementptr inbounds nuw i8, ptr %0, i64 24
  %17 = load i32, ptr %16, align 8, !tbaa !16
  %18 = load ptr, ptr %0, align 8, !tbaa !17
  %19 = lshr i32 %15, 3
  %20 = zext nneg i32 %19 to i64
  %21 = getelementptr inbounds nuw i8, ptr %18, i64 %20
  %22 = load i32, ptr %21, align 1, !tbaa !10
  %23 = tail call i32 @llvm.bswap.i32(i32 %22)
  %24 = and i32 %15, 7
  %25 = shl i32 %23, %24
  %26 = sub nsw i32 32, %13
  %27 = lshr i32 %25, %26
  %28 = add i32 %15, %13
  %29 = tail call i32 @llvm.umin.i32(i32 %17, i32 %28)
  store i32 %29, ptr %14, align 8, !tbaa !11
  ret i32 %27
}